(lp0
(S'cppflags'
p1
ccopy_reg
_reconstructor
p2
(cino.utils
SpaceList
p3
c__builtin__
list
p4
(lp5
S'-mmcu=atmega328p'
p6
aS'-DF_CPU=16000000L'
p7
aS'-DARDUINO=100'
p8
aS'-I/usr/share/arduino/hardware/arduino/cores/arduino'
p9
aS'-ffunction-sections'
p10
aS'-fdata-sections'
p11
aS'-g'
p12
aS'-Os'
p13
aS'-w'
p14
aS'-I/usr/share/arduino/hardware/arduino/variants/standard'
p15
aS'-I/usr/share/arduino/hardware/arduino/cores/arduino'
p16
atp17
Rp18
tp19
a(S'cc'
p20
S'/usr/bin/avr-gcc'
p21
tp22
a(S'version.txt'
p23
S'/usr/share/arduino/lib/version.txt'
p24
tp25
a(S'used_libs'
p26
(lp27
S'/usr/share/arduino/hardware/arduino/cores/arduino'
p28
atp29
a(S'cxx'
p30
S'/usr/bin/avr-g++'
p31
tp32
a(S'make'
p33
S'/usr/bin/make'
p34
tp35
a(S'build_dir'
p36
S'.build/uno'
p37
tp38
a(S'arduino_core_dir'
p39
g28
tp40
a(S'boards.txt'
p41
S'/usr/share/arduino/hardware/arduino/boards.txt'
p42
tp43
a(S'cxxflags'
p44
g2
(g3
g4
(lp45
S'-fno-exceptions'
p46
atp47
Rp48
tp49
a(S'arduino_variants_dir'
p50
S'/usr/share/arduino/hardware/arduino/variants'
p51
tp52
a(S'deps'
p53
g2
(g3
g4
(lp54
S'.build/uno/src/dependencies.d'
p55
aS'.build/uno/arduino/dependencies.d'
p56
atp57
Rp58
tp59
a(S'ar'
p60
S'/usr/bin/avr-ar'
p61
tp62
a(S'names'
p63
(dp64
S'cpp'
p65
S'%s.cpp'
p66
sS'obj'
p67
S'%s.o'
p68
sS'deps'
p69
S'%s.d'
p70
sS'lib'
p71
S'lib%s.a'
p72
stp73
a(S'cflags'
p74
g2
(g3
g4
(lp75
tp76
Rp77
tp78
a(S'arduino_libraries_dir'
p79
S'/usr/share/arduino/libraries'
p80
tp81
a(S'arduino_lib_version'
p82
g2
(cino.environment
Version
p83
c__builtin__
tuple
p84
(I1
I0
I0
tp85
tp86
Rp87
tp88
a(S'objcopy'
p89
S'/usr/bin/avr-objcopy'
p90
tp91
a(S'board_models'
p92
cino.environment
BoardModels
p93
((lp94
(lp95
S'uno'
p96
a(dp97
S'bootloader'
p98
(dp99
S'extended_fuses'
p100
S'0x05'
p101
sS'high_fuses'
p102
S'0xde'
p103
sS'low_fuses'
p104
S'0xff'
p105
sS'lock_bits'
p106
S'0x0F'
p107
sS'file'
p108
S'optiboot_atmega328.hex'
p109
sS'path'
p110
S'optiboot'
p111
sS'unlock_bits'
p112
S'0x3F'
p113
ssS'build'
p114
(dp115
S'core'
p116
S'arduino'
p117
sS'mcu'
p118
S'atmega328p'
p119
sS'f_cpu'
p120
S'16000000L'
p121
sS'variant'
p122
S'standard'
p123
ssS'name'
p124
S'Arduino Uno'
p125
sS'upload'
p126
(dp127
S'speed'
p128
S'115200'
p129
sS'maximum_size'
p130
S'32256'
p131
sS'protocol'
p132
S'arduino'
p133
ssaa(lp134
S'atmega328'
p135
a(dp136
S'bootloader'
p137
(dp138
S'extended_fuses'
p139
S'0x05'
p140
sS'high_fuses'
p141
S'0xDA'
p142
sS'low_fuses'
p143
S'0xFF'
p144
sS'lock_bits'
p145
S'0x0F'
p146
sS'file'
p147
S'ATmegaBOOT_168_atmega328.hex'
p148
sS'path'
p149
S'atmega'
p150
sS'unlock_bits'
p151
S'0x3F'
p152
ssS'build'
p153
(dp154
S'core'
p155
S'arduino'
p156
sS'mcu'
p157
S'atmega328p'
p158
sS'f_cpu'
p159
S'16000000L'
p160
sS'variant'
p161
S'standard'
p162
ssS'name'
p163
S'Arduino Duemilanove w/ ATmega328'
p164
sS'upload'
p165
(dp166
S'speed'
p167
S'57600'
p168
sS'maximum_size'
p169
S'30720'
p170
sS'protocol'
p171
S'arduino'
p172
ssaa(lp173
S'diecimila'
p174
a(dp175
S'bootloader'
p176
(dp177
S'extended_fuses'
p178
S'0x00'
p179
sS'high_fuses'
p180
S'0xdd'
p181
sS'low_fuses'
p182
S'0xff'
p183
sS'lock_bits'
p184
S'0x0F'
p185
sS'file'
p186
S'ATmegaBOOT_168_diecimila.hex'
p187
sS'path'
p188
S'atmega'
p189
sS'unlock_bits'
p190
S'0x3F'
p191
ssS'build'
p192
(dp193
S'core'
p194
S'arduino'
p195
sS'mcu'
p196
S'atmega168'
p197
sS'f_cpu'
p198
S'16000000L'
p199
sS'variant'
p200
S'standard'
p201
ssS'name'
p202
S'Arduino Diecimila or Duemilanove w/ ATmega168'
p203
sS'upload'
p204
(dp205
S'speed'
p206
S'19200'
p207
sS'maximum_size'
p208
S'14336'
p209
sS'protocol'
p210
S'arduino'
p211
ssaa(lp212
S'nano328'
p213
a(dp214
S'bootloader'
p215
(dp216
S'extended_fuses'
p217
S'0x05'
p218
sS'high_fuses'
p219
S'0xDA'
p220
sS'low_fuses'
p221
S'0xFF'
p222
sS'lock_bits'
p223
S'0x0F'
p224
sS'file'
p225
S'ATmegaBOOT_168_atmega328.hex'
p226
sS'path'
p227
S'atmega'
p228
sS'unlock_bits'
p229
S'0x3F'
p230
ssS'build'
p231
(dp232
S'core'
p233
S'arduino'
p234
sS'mcu'
p235
S'atmega328p'
p236
sS'f_cpu'
p237
S'16000000L'
p238
sS'variant'
p239
S'eightanaloginputs'
p240
ssS'name'
p241
S'Arduino Nano w/ ATmega328'
p242
sS'upload'
p243
(dp244
S'speed'
p245
S'57600'
p246
sS'maximum_size'
p247
S'30720'
p248
sS'protocol'
p249
S'arduino'
p250
ssaa(lp251
S'nano'
p252
a(dp253
S'bootloader'
p254
(dp255
S'extended_fuses'
p256
S'0x00'
p257
sS'high_fuses'
p258
S'0xdd'
p259
sS'low_fuses'
p260
S'0xff'
p261
sS'lock_bits'
p262
S'0x0F'
p263
sS'file'
p264
S'ATmegaBOOT_168_diecimila.hex'
p265
sS'path'
p266
S'atmega'
p267
sS'unlock_bits'
p268
S'0x3F'
p269
ssS'build'
p270
(dp271
S'core'
p272
S'arduino'
p273
sS'mcu'
p274
S'atmega168'
p275
sS'f_cpu'
p276
S'16000000L'
p277
sS'variant'
p278
S'eightanaloginputs'
p279
ssS'name'
p280
S'Arduino Nano w/ ATmega168'
p281
sS'upload'
p282
(dp283
S'speed'
p284
S'19200'
p285
sS'maximum_size'
p286
S'14336'
p287
sS'protocol'
p288
S'arduino'
p289
ssaa(lp290
S'mega2560'
p291
a(dp292
S'bootloader'
p293
(dp294
S'extended_fuses'
p295
S'0xFD'
p296
sS'high_fuses'
p297
S'0xD8'
p298
sS'low_fuses'
p299
S'0xFF'
p300
sS'lock_bits'
p301
S'0x0F'
p302
sS'file'
p303
S'stk500boot_v2_mega2560.hex'
p304
sS'path'
p305
S'stk500v2'
p306
sS'unlock_bits'
p307
S'0x3F'
p308
ssS'build'
p309
(dp310
S'core'
p311
S'arduino'
p312
sS'mcu'
p313
S'atmega2560'
p314
sS'f_cpu'
p315
S'16000000L'
p316
sS'variant'
p317
S'mega'
p318
ssS'name'
p319
S'Arduino Mega 2560 or Mega ADK'
p320
sS'upload'
p321
(dp322
S'speed'
p323
S'115200'
p324
sS'maximum_size'
p325
S'258048'
p326
sS'protocol'
p327
S'stk500v2'
p328
ssaa(lp329
S'mega'
p330
a(dp331
S'bootloader'
p332
(dp333
S'extended_fuses'
p334
S'0xF5'
p335
sS'high_fuses'
p336
S'0xDA'
p337
sS'low_fuses'
p338
S'0xFF'
p339
sS'lock_bits'
p340
S'0x0F'
p341
sS'file'
p342
S'ATmegaBOOT_168_atmega1280.hex'
p343
sS'path'
p344
S'atmega'
p345
sS'unlock_bits'
p346
S'0x3F'
p347
ssS'build'
p348
(dp349
S'core'
p350
S'arduino'
p351
sS'mcu'
p352
S'atmega1280'
p353
sS'f_cpu'
p354
S'16000000L'
p355
sS'variant'
p356
S'mega'
p357
ssS'name'
p358
S'Arduino Mega (ATmega1280)'
p359
sS'upload'
p360
(dp361
S'speed'
p362
S'57600'
p363
sS'maximum_size'
p364
S'126976'
p365
sS'protocol'
p366
S'arduino'
p367
ssaa(lp368
S'mini328'
p369
a(dp370
S'bootloader'
p371
(dp372
S'extended_fuses'
p373
S'0x05'
p374
sS'high_fuses'
p375
S'0xd8'
p376
sS'low_fuses'
p377
S'0xff'
p378
sS'lock_bits'
p379
S'0x0F'
p380
sS'file'
p381
S'optiboot_atmega328-Mini.hex'
p382
sS'path'
p383
S'optiboot'
p384
sS'unlock_bits'
p385
S'0x3F'
p386
ssS'build'
p387
(dp388
S'core'
p389
S'arduino'
p390
sS'mcu'
p391
S'atmega328p'
p392
sS'f_cpu'
p393
S'16000000L'
p394
sS'variant'
p395
S'eightanaloginputs'
p396
ssS'name'
p397
S'Arduino Mini w/ ATmega328'
p398
sS'upload'
p399
(dp400
S'speed'
p401
S'115200'
p402
sS'maximum_size'
p403
S'28672'
p404
sS'protocol'
p405
S'stk500'
p406
ssaa(lp407
S'mini'
p408
a(dp409
S'bootloader'
p410
(dp411
S'extended_fuses'
p412
S'0x00'
p413
sS'high_fuses'
p414
S'0xdd'
p415
sS'low_fuses'
p416
S'0xff'
p417
sS'lock_bits'
p418
S'0x0F'
p419
sS'file'
p420
S'ATmegaBOOT_168_ng.hex'
p421
sS'path'
p422
S'atmega'
p423
sS'unlock_bits'
p424
S'0x3F'
p425
ssS'build'
p426
(dp427
S'core'
p428
S'arduino'
p429
sS'mcu'
p430
S'atmega168'
p431
sS'f_cpu'
p432
S'16000000L'
p433
sS'variant'
p434
S'eightanaloginputs'
p435
ssS'name'
p436
S'Arduino Mini w/ ATmega168'
p437
sS'upload'
p438
(dp439
S'speed'
p440
S'19200'
p441
sS'maximum_size'
p442
S'14336'
p443
sS'protocol'
p444
S'arduino'
p445
ssaa(lp446
S'ethernet'
p447
a(dp448
S'bootloader'
p449
(dp450
S'extended_fuses'
p451
S'0x05'
p452
sS'high_fuses'
p453
S'0xde'
p454
sS'low_fuses'
p455
S'0xff'
p456
sS'lock_bits'
p457
S'0x0F'
p458
sS'file'
p459
S'optiboot_atmega328.hex'
p460
sS'path'
p461
S'optiboot'
p462
sS'unlock_bits'
p463
S'0x3F'
p464
ssS'build'
p465
(dp466
S'f_cpu'
p467
S'16000000L'
p468
sS'mcu'
p469
S'atmega328p'
p470
sS'variant'
p471
S'standard'
p472
sS'core'
p473
S'arduino'
p474
ssS'name'
p475
S'Arduino Ethernet'
p476
sS'upload'
p477
(dp478
S'speed'
p479
S'115200'
p480
sS'maximum_size'
p481
S'32256'
p482
sS'protocol'
p483
S'arduino'
p484
ssaa(lp485
S'fio'
p486
a(dp487
S'bootloader'
p488
(dp489
S'extended_fuses'
p490
S'0x05'
p491
sS'high_fuses'
p492
S'0xDA'
p493
sS'low_fuses'
p494
S'0xFF'
p495
sS'lock_bits'
p496
S'0x0F'
p497
sS'file'
p498
S'ATmegaBOOT_168_atmega328_pro_8MHz.hex'
p499
sS'path'
p500
S'arduino:atmega'
p501
sS'unlock_bits'
p502
S'0x3F'
p503
ssS'build'
p504
(dp505
S'core'
p506
S'arduino'
p507
sS'mcu'
p508
S'atmega328p'
p509
sS'f_cpu'
p510
S'8000000L'
p511
sS'variant'
p512
S'eightanaloginputs'
p513
ssS'name'
p514
S'Arduino Fio'
p515
sS'upload'
p516
(dp517
S'speed'
p518
S'57600'
p519
sS'maximum_size'
p520
S'30720'
p521
sS'protocol'
p522
S'arduino'
p523
ssaa(lp524
S'bt328'
p525
a(dp526
S'bootloader'
p527
(dp528
S'extended_fuses'
p529
S'0x05'
p530
sS'high_fuses'
p531
S'0xd8'
p532
sS'low_fuses'
p533
S'0xff'
p534
sS'lock_bits'
p535
S'0x0F'
p536
sS'file'
p537
S'ATmegaBOOT_168_atmega328_bt.hex'
p538
sS'path'
p539
S'bt'
p540
sS'unlock_bits'
p541
S'0x3F'
p542
ssS'build'
p543
(dp544
S'core'
p545
S'arduino'
p546
sS'mcu'
p547
S'atmega328p'
p548
sS'f_cpu'
p549
S'16000000L'
p550
sS'variant'
p551
S'eightanaloginputs'
p552
ssS'name'
p553
S'Arduino BT w/ ATmega328'
p554
sS'upload'
p555
(dp556
S'speed'
p557
S'19200'
p558
sS'maximum_size'
p559
S'28672'
p560
sS'protocol'
p561
S'arduino'
p562
sS'disable_flushing'
p563
S'true'
p564
ssaa(lp565
S'bt'
p566
a(dp567
S'bootloader'
p568
(dp569
S'extended_fuses'
p570
S'0x00'
p571
sS'high_fuses'
p572
S'0xdd'
p573
sS'low_fuses'
p574
S'0xff'
p575
sS'lock_bits'
p576
S'0x0F'
p577
sS'file'
p578
S'ATmegaBOOT_168.hex'
p579
sS'path'
p580
S'bt'
p581
sS'unlock_bits'
p582
S'0x3F'
p583
ssS'build'
p584
(dp585
S'core'
p586
S'arduino'
p587
sS'mcu'
p588
S'atmega168'
p589
sS'f_cpu'
p590
S'16000000L'
p591
sS'variant'
p592
S'eightanaloginputs'
p593
ssS'name'
p594
S'Arduino BT w/ ATmega168'
p595
sS'upload'
p596
(dp597
S'speed'
p598
S'19200'
p599
sS'maximum_size'
p600
S'14336'
p601
sS'protocol'
p602
S'arduino'
p603
sS'disable_flushing'
p604
S'true'
p605
ssaa(lp606
S'lilypad328'
p607
a(dp608
S'bootloader'
p609
(dp610
S'extended_fuses'
p611
S'0x05'
p612
sS'high_fuses'
p613
S'0xDA'
p614
sS'low_fuses'
p615
S'0xFF'
p616
sS'lock_bits'
p617
S'0x0F'
p618
sS'file'
p619
S'ATmegaBOOT_168_atmega328_pro_8MHz.hex'
p620
sS'path'
p621
S'atmega'
p622
sS'unlock_bits'
p623
S'0x3F'
p624
ssS'build'
p625
(dp626
S'core'
p627
S'arduino'
p628
sS'mcu'
p629
S'atmega328p'
p630
sS'f_cpu'
p631
S'8000000L'
p632
sS'variant'
p633
S'standard'
p634
ssS'name'
p635
S'LilyPad Arduino w/ ATmega328'
p636
sS'upload'
p637
(dp638
S'speed'
p639
S'57600'
p640
sS'maximum_size'
p641
S'30720'
p642
sS'protocol'
p643
S'arduino'
p644
ssaa(lp645
S'lilypad'
p646
a(dp647
S'bootloader'
p648
(dp649
S'extended_fuses'
p650
S'0x00'
p651
sS'high_fuses'
p652
S'0xdd'
p653
sS'low_fuses'
p654
S'0xe2'
p655
sS'lock_bits'
p656
S'0x0F'
p657
sS'file'
p658
S'LilyPadBOOT_168.hex'
p659
sS'path'
p660
S'lilypad'
p661
sS'unlock_bits'
p662
S'0x3F'
p663
ssS'build'
p664
(dp665
S'core'
p666
S'arduino'
p667
sS'mcu'
p668
S'atmega168'
p669
sS'f_cpu'
p670
S'8000000L'
p671
sS'variant'
p672
S'standard'
p673
ssS'name'
p674
S'LilyPad Arduino w/ ATmega168'
p675
sS'upload'
p676
(dp677
S'speed'
p678
S'19200'
p679
sS'maximum_size'
p680
S'14336'
p681
sS'protocol'
p682
S'arduino'
p683
ssaa(lp684
S'pro5v328'
p685
a(dp686
S'bootloader'
p687
(dp688
S'extended_fuses'
p689
S'0x05'
p690
sS'high_fuses'
p691
S'0xDA'
p692
sS'low_fuses'
p693
S'0xFF'
p694
sS'lock_bits'
p695
S'0x0F'
p696
sS'file'
p697
S'ATmegaBOOT_168_atmega328.hex'
p698
sS'path'
p699
S'atmega'
p700
sS'unlock_bits'
p701
S'0x3F'
p702
ssS'build'
p703
(dp704
S'core'
p705
S'arduino'
p706
sS'mcu'
p707
S'atmega328p'
p708
sS'f_cpu'
p709
S'16000000L'
p710
sS'variant'
p711
S'standard'
p712
ssS'name'
p713
S'Arduino Pro or Pro Mini (5V, 16 MHz) w/ ATmega328'
p714
sS'upload'
p715
(dp716
S'speed'
p717
S'57600'
p718
sS'maximum_size'
p719
S'30720'
p720
sS'protocol'
p721
S'arduino'
p722
ssaa(lp723
S'pro5v'
p724
a(dp725
S'bootloader'
p726
(dp727
S'extended_fuses'
p728
S'0x00'
p729
sS'high_fuses'
p730
S'0xdd'
p731
sS'low_fuses'
p732
S'0xff'
p733
sS'lock_bits'
p734
S'0x0F'
p735
sS'file'
p736
S'ATmegaBOOT_168_diecimila.hex'
p737
sS'path'
p738
S'atmega'
p739
sS'unlock_bits'
p740
S'0x3F'
p741
ssS'build'
p742
(dp743
S'core'
p744
S'arduino'
p745
sS'mcu'
p746
S'atmega168'
p747
sS'f_cpu'
p748
S'16000000L'
p749
sS'variant'
p750
S'standard'
p751
ssS'name'
p752
S'Arduino Pro or Pro Mini (5V, 16 MHz) w/ ATmega168'
p753
sS'upload'
p754
(dp755
S'speed'
p756
S'19200'
p757
sS'maximum_size'
p758
S'14336'
p759
sS'protocol'
p760
S'arduino'
p761
ssaa(lp762
S'pro328'
p763
a(dp764
S'bootloader'
p765
(dp766
S'extended_fuses'
p767
S'0x05'
p768
sS'high_fuses'
p769
S'0xDA'
p770
sS'low_fuses'
p771
S'0xFF'
p772
sS'lock_bits'
p773
S'0x0F'
p774
sS'file'
p775
S'ATmegaBOOT_168_atmega328_pro_8MHz.hex'
p776
sS'path'
p777
S'atmega'
p778
sS'unlock_bits'
p779
S'0x3F'
p780
ssS'build'
p781
(dp782
S'core'
p783
S'arduino'
p784
sS'mcu'
p785
S'atmega328p'
p786
sS'f_cpu'
p787
S'8000000L'
p788
sS'variant'
p789
S'standard'
p790
ssS'name'
p791
S'Arduino Pro or Pro Mini (3.3V, 8 MHz) w/ ATmega328'
p792
sS'upload'
p793
(dp794
S'speed'
p795
S'57600'
p796
sS'maximum_size'
p797
S'30720'
p798
sS'protocol'
p799
S'arduino'
p800
ssaa(lp801
S'pro'
p802
a(dp803
S'bootloader'
p804
(dp805
S'extended_fuses'
p806
S'0x00'
p807
sS'high_fuses'
p808
S'0xdd'
p809
sS'low_fuses'
p810
S'0xc6'
p811
sS'lock_bits'
p812
S'0x0F'
p813
sS'file'
p814
S'ATmegaBOOT_168_pro_8MHz.hex'
p815
sS'path'
p816
S'atmega'
p817
sS'unlock_bits'
p818
S'0x3F'
p819
ssS'build'
p820
(dp821
S'core'
p822
S'arduino'
p823
sS'mcu'
p824
S'atmega168'
p825
sS'f_cpu'
p826
S'8000000L'
p827
sS'variant'
p828
S'standard'
p829
ssS'name'
p830
S'Arduino Pro or Pro Mini (3.3V, 8 MHz) w/ ATmega168'
p831
sS'upload'
p832
(dp833
S'speed'
p834
S'19200'
p835
sS'maximum_size'
p836
S'14336'
p837
sS'protocol'
p838
S'arduino'
p839
ssaa(lp840
S'atmega168'
p841
a(dp842
S'bootloader'
p843
(dp844
S'extended_fuses'
p845
S'0x00'
p846
sS'high_fuses'
p847
S'0xdd'
p848
sS'low_fuses'
p849
S'0xff'
p850
sS'lock_bits'
p851
S'0x0F'
p852
sS'file'
p853
S'ATmegaBOOT_168_ng.hex'
p854
sS'path'
p855
S'atmega'
p856
sS'unlock_bits'
p857
S'0x3F'
p858
ssS'build'
p859
(dp860
S'core'
p861
S'arduino'
p862
sS'mcu'
p863
S'atmega168'
p864
sS'f_cpu'
p865
S'16000000L'
p866
sS'variant'
p867
S'standard'
p868
ssS'name'
p869
S'Arduino NG or older w/ ATmega168'
p870
sS'upload'
p871
(dp872
S'speed'
p873
S'19200'
p874
sS'maximum_size'
p875
S'14336'
p876
sS'protocol'
p877
S'arduino'
p878
ssaa(lp879
S'atmega8'
p880
a(dp881
S'bootloader'
p882
(dp883
S'high_fuses'
p884
S'0xca'
p885
sS'low_fuses'
p886
S'0xdf'
p887
sS'lock_bits'
p888
S'0x0F'
p889
sS'file'
p890
S'ATmegaBOOT.hex'
p891
sS'path'
p892
S'atmega8'
p893
sS'unlock_bits'
p894
S'0x3F'
p895
ssS'build'
p896
(dp897
S'core'
p898
S'arduino'
p899
sS'mcu'
p900
S'atmega8'
p901
sS'f_cpu'
p902
S'16000000L'
p903
sS'variant'
p904
S'standard'
p905
ssS'name'
p906
S'Arduino NG or older w/ ATmega8'
p907
sS'upload'
p908
(dp909
S'speed'
p910
S'19200'
p911
sS'maximum_size'
p912
S'7168'
p913
sS'protocol'
p914
S'arduino'
p915
ssaatp916
Rp917
(dp918
S'default'
p919
S'uno'
p920
sbtp921
a(S'ldflags'
p922
g2
(g3
g4
(lp923
g6
aS'-Wl,-Os'
p924
aS'-Wl,--gc-sections'
p925
atp926
Rp927
tp928
a.